; ModuleID = '60/767.c'
source_filename = "60/767.c"
target datalayout = "e-m:e-p270:32:32-p271:32:32-p272:64:64-i64:64-f80:128-n8:16:32:64-S128"
target triple = "x86_64-pc-linux-gnu"

@.str = private unnamed_addr constant [3 x i8] c"%d\00", align 1
@.str.1 = private unnamed_addr constant [6 x i8] c"empty\00", align 1
@.str.2 = private unnamed_addr constant [7 x i8] c"%d %d\0A\00", align 1

; Function Attrs: noinline nounwind uwtable
define dso_local i32 @main() #0 {
  %1 = alloca i32, align 4
  %2 = alloca i32, align 4
  %3 = alloca i32, align 4
  %4 = alloca i32, align 4
  %5 = alloca [10000 x i32], align 16
  %6 = alloca i32, align 4
  %7 = alloca i32, align 4
  %8 = alloca i32, align 4
  store i32 0, i32* %1, align 4
  store i32 0, i32* %6, align 4
  %9 = call i32 (i8*, ...) @__isoc99_scanf(i8* getelementptr inbounds ([3 x i8], [3 x i8]* @.str, i64 0, i64 0), i32* %2)
  store i32 2, i32* %3, align 4
  br label %10

10:                                               ; preds = %49, %0
  %11 = load i32, i32* %3, align 4
  %12 = load i32, i32* %2, align 4
  %13 = icmp sle i32 %11, %12
  br i1 %13, label %14, label %52

14:                                               ; preds = %10
  store i32 2, i32* %4, align 4
  br label %15

15:                                               ; preds = %39, %14
  %16 = load i32, i32* %4, align 4
  %17 = load i32, i32* %3, align 4
  %18 = icmp slt i32 %16, %17
  br i1 %18, label %19, label %42

19:                                               ; preds = %15
  %20 = load i32, i32* %3, align 4
  %21 = load i32, i32* %4, align 4
  %22 = srem i32 %20, %21
  %23 = icmp eq i32 %22, 0
  br i1 %23, label %24, label %25

24:                                               ; preds = %19
  br label %42

25:                                               ; preds = %19
  %26 = load i32, i32* %4, align 4
  %27 = load i32, i32* %3, align 4
  %28 = sub nsw i32 %27, 1
  %29 = icmp eq i32 %26, %28
  br i1 %29, label %30, label %37

30:                                               ; preds = %25
  %31 = load i32, i32* %3, align 4
  %32 = load i32, i32* %6, align 4
  %33 = sext i32 %32 to i64
  %34 = getelementptr inbounds [10000 x i32], [10000 x i32]* %5, i64 0, i64 %33
  store i32 %31, i32* %34, align 4
  %35 = load i32, i32* %6, align 4
  %36 = add nsw i32 %35, 1
  store i32 %36, i32* %6, align 4
  br label %37

37:                                               ; preds = %30, %25
  br label %38

38:                                               ; preds = %37
  br label %39

39:                                               ; preds = %38
  %40 = load i32, i32* %4, align 4
  %41 = add nsw i32 %40, 1
  store i32 %41, i32* %4, align 4
  br label %15

42:                                               ; preds = %24, %15
  %43 = load i32, i32* %3, align 4
  %44 = load i32, i32* %2, align 4
  %45 = icmp eq i32 %43, %44
  br i1 %45, label %46, label %48

46:                                               ; preds = %42
  %47 = load i32, i32* %6, align 4
  store i32 %47, i32* %7, align 4
  br label %48

48:                                               ; preds = %46, %42
  br label %49

49:                                               ; preds = %48
  %50 = load i32, i32* %3, align 4
  %51 = add nsw i32 %50, 1
  store i32 %51, i32* %3, align 4
  br label %10

52:                                               ; preds = %10
  %53 = load i32, i32* %7, align 4
  %54 = icmp eq i32 %53, 1
  br i1 %54, label %55, label %57

55:                                               ; preds = %52
  %56 = call i32 (i8*, ...) @printf(i8* getelementptr inbounds ([6 x i8], [6 x i8]* @.str.1, i64 0, i64 0))
  br label %96

57:                                               ; preds = %52
  store i32 1, i32* %8, align 4
  store i32 0, i32* %6, align 4
  br label %58

58:                                               ; preds = %87, %57
  %59 = load i32, i32* %6, align 4
  %60 = load i32, i32* %7, align 4
  %61 = sub nsw i32 %60, 1
  %62 = icmp slt i32 %59, %61
  br i1 %62, label %63, label %90

63:                                               ; preds = %58
  %64 = load i32, i32* %6, align 4
  %65 = add nsw i32 %64, 1
  %66 = sext i32 %65 to i64
  %67 = getelementptr inbounds [10000 x i32], [10000 x i32]* %5, i64 0, i64 %66
  %68 = load i32, i32* %67, align 4
  %69 = load i32, i32* %6, align 4
  %70 = sext i32 %69 to i64
  %71 = getelementptr inbounds [10000 x i32], [10000 x i32]* %5, i64 0, i64 %70
  %72 = load i32, i32* %71, align 4
  %73 = sub nsw i32 %68, %72
  %74 = icmp eq i32 %73, 2
  br i1 %74, label %75, label %86

75:                                               ; preds = %63
  %76 = load i32, i32* %6, align 4
  %77 = sext i32 %76 to i64
  %78 = getelementptr inbounds [10000 x i32], [10000 x i32]* %5, i64 0, i64 %77
  %79 = load i32, i32* %78, align 4
  %80 = load i32, i32* %6, align 4
  %81 = add nsw i32 %80, 1
  %82 = sext i32 %81 to i64
  %83 = getelementptr inbounds [10000 x i32], [10000 x i32]* %5, i64 0, i64 %82
  %84 = load i32, i32* %83, align 4
  %85 = call i32 (i8*, ...) @printf(i8* getelementptr inbounds ([7 x i8], [7 x i8]* @.str.2, i64 0, i64 0), i32 %79, i32 %84)
  store i32 0, i32* %8, align 4
  br label %86

86:                                               ; preds = %75, %63
  br label %87

87:                                               ; preds = %86
  %88 = load i32, i32* %6, align 4
  %89 = add nsw i32 %88, 1
  store i32 %89, i32* %6, align 4
  br label %58

90:                                               ; preds = %58
  %91 = load i32, i32* %8, align 4
  %92 = icmp ne i32 %91, 0
  br i1 %92, label %93, label %95

93:                                               ; preds = %90
  %94 = call i32 (i8*, ...) @printf(i8* getelementptr inbounds ([6 x i8], [6 x i8]* @.str.1, i64 0, i64 0))
  br label %95

95:                                               ; preds = %93, %90
  br label %96

96:                                               ; preds = %95, %55
  ret i32 0
}

declare dso_local i32 @__isoc99_scanf(i8*, ...) #1

declare dso_local i32 @printf(i8*, ...) #1


!llvm.module.flags = !{!0}
!llvm.ident = !{!1}

!0 = !{i32 1, !"wchar_size", i32 4}
!1 = !{!"clang version 10.0.0-4ubuntu1 "}
